target datalayout = "e-m:e-p270:32:32-p271:32:32-p272:64:64-i64:64-i128:128-f80:128-n8:16:32:64-S128"
target triple = "x86_64-pc-linux-gnu"

%"class.gmx::GridAxis" = type <{ double, double, double, double, i32, i32, i8, [7 x i8] }>
%class.anon.15 = type { i8 }
%class.anon.17 = type { i8 }

@.str.2 = private unnamed_addr constant [137 x i8] c"generated/home/dtcxzyw/WorkSpace/Projects/compilers/llvm-opt-benchmark/bench/gromacs/gromacs/src/gromacs/applied_forces/awh/biasgrid.cpp\00", align 1
@.str.5 = private unnamed_addr constant [12 x i8] c"length >= 0\00", align 1
@.str.6 = private unnamed_addr constant [31 x i8] c"Negative AWH grid axis length.\00", align 1
@"__PRETTY_FUNCTION__._ZZN3gmx12_GLOBAL__N_125getIntervalLengthPeriodicEdddENK3$_0clEv" = private unnamed_addr constant [122 x i8] c"auto gmx::(anonymous namespace)::getIntervalLengthPeriodic(double, double, double)::(anonymous class)::operator()() const\00", align 1
@.str.7 = private unnamed_addr constant [32 x i8] c"period == 0 || length <= period\00", align 1
@.str.8 = private unnamed_addr constant [36 x i8] c"Interval length longer than period.\00", align 1

; Function Attrs: mustprogress uwtable
define internal void @"_ZZN3gmx12_GLOBAL__N_125getIntervalLengthPeriodicEdddENK3$_1clEv"(ptr noundef nonnull align 1 dereferenceable(1) %0) #0 align 2 {
  %2 = alloca ptr, align 8
  store ptr %0, ptr %2, align 8
  call void @_ZN3gmx8internal13assertHandlerEPKcS2_S2_S2_i(ptr noundef @.str.7, ptr noundef @.str.8, ptr noundef @"__PRETTY_FUNCTION__._ZZN3gmx12_GLOBAL__N_125getIntervalLengthPeriodicEdddENK3$_0clEv", ptr noundef @.str.2, i32 noundef 162) #13
  unreachable
}

; Function Attrs: mustprogress uwtable
define internal void @"_ZZN3gmx12_GLOBAL__N_125getIntervalLengthPeriodicEdddENK3$_0clEv"(ptr noundef nonnull align 1 dereferenceable(1) %0) #0 align 2 {
  %2 = alloca ptr, align 8
  store ptr %0, ptr %2, align 8
  call void @_ZN3gmx8internal13assertHandlerEPKcS2_S2_S2_i(ptr noundef @.str.5, ptr noundef @.str.6, ptr noundef @"__PRETTY_FUNCTION__._ZZN3gmx12_GLOBAL__N_125getIntervalLengthPeriodicEdddENK3$_0clEv", ptr noundef @.str.2, i32 noundef 161) #13
  unreachable
}

; Function Attrs: mustprogress uwtable
define internal noundef double @_ZN3gmx12_GLOBAL__N_125getIntervalLengthPeriodicEddd(double noundef %0, double noundef %1, double noundef %2) #0 {
  %4 = alloca double, align 8
  %5 = alloca double, align 8
  %6 = alloca double, align 8
  %7 = alloca double, align 8
  %8 = alloca %class.anon.15, align 1
  %9 = alloca %class.anon.17, align 1
  store double %0, ptr %4, align 8
  store double %1, ptr %5, align 8
  store double %2, ptr %6, align 8
  %10 = load double, ptr %5, align 8
  %11 = load double, ptr %4, align 8
  %12 = fsub double %10, %11
  store double %12, ptr %7, align 8
  %13 = load double, ptr %7, align 8
  %14 = fcmp olt double %13, 0.000000e+00
  br i1 %14, label %15, label %19

15:                                               ; preds = %3
  %16 = load double, ptr %6, align 8
  %17 = load double, ptr %7, align 8
  %18 = fadd double %17, %16
  store double %18, ptr %7, align 8
  br label %19

19:                                               ; preds = %15, %3
  %20 = load double, ptr %7, align 8
  %21 = fcmp oge double %20, 0.000000e+00
  br i1 %21, label %22, label %23

22:                                               ; preds = %19
  br label %24

23:                                               ; preds = %19
  call void @"_ZZN3gmx12_GLOBAL__N_125getIntervalLengthPeriodicEdddENK3$_0clEv"(ptr noundef nonnull align 1 dereferenceable(1) %8)
  br label %24

24:                                               ; preds = %23, %22
  %25 = load double, ptr %6, align 8
  %26 = fcmp oeq double %25, 0.000000e+00
  br i1 %26, label %31, label %27

27:                                               ; preds = %24
  %28 = load double, ptr %7, align 8
  %29 = load double, ptr %6, align 8
  %30 = fcmp ole double %28, %29
  br i1 %30, label %31, label %32

31:                                               ; preds = %27, %24
  br label %33

32:                                               ; preds = %27
  call void @"_ZZN3gmx12_GLOBAL__N_125getIntervalLengthPeriodicEdddENK3$_1clEv"(ptr noundef nonnull align 1 dereferenceable(1) %9)
  br label %33

33:                                               ; preds = %32, %31
  %34 = load double, ptr %7, align 8
  ret double %34
}

; Function Attrs: mustprogress uwtable
define void @_ZN3gmx8GridAxisC2Edddib(ptr noundef nonnull align 8 dereferenceable(41) %0, double noundef %1, double noundef %2, double noundef %3, i32 noundef %4, i1 noundef zeroext %5) unnamed_addr #0 align 2 {
  %7 = alloca ptr, align 8
  %8 = alloca double, align 8
  %9 = alloca double, align 8
  %10 = alloca double, align 8
  %11 = alloca i32, align 4
  %12 = alloca i8, align 1
  store ptr %0, ptr %7, align 8
  store double %1, ptr %8, align 8
  store double %2, ptr %9, align 8
  store double %3, ptr %10, align 8
  store i32 %4, ptr %11, align 4
  %13 = zext i1 %5 to i8
  store i8 %13, ptr %12, align 1
  %14 = load ptr, ptr %7, align 8
  %15 = getelementptr inbounds %"class.gmx::GridAxis", ptr %14, i32 0, i32 0
  %16 = load double, ptr %8, align 8
  store double %16, ptr %15, align 8
  %17 = getelementptr inbounds %"class.gmx::GridAxis", ptr %14, i32 0, i32 2
  %18 = load double, ptr %10, align 8
  store double %18, ptr %17, align 8
  %19 = getelementptr inbounds %"class.gmx::GridAxis", ptr %14, i32 0, i32 4
  %20 = load i32, ptr %11, align 4
  store i32 %20, ptr %19, align 8
  %21 = getelementptr inbounds %"class.gmx::GridAxis", ptr %14, i32 0, i32 6
  %22 = load i8, ptr %12, align 1
  %23 = trunc i8 %22 to i1
  %24 = zext i1 %23 to i8
  store i8 %24, ptr %21, align 8
  %25 = load i8, ptr %12, align 1
  %26 = trunc i8 %25 to i1
  br i1 %26, label %27, label %36

27:                                               ; preds = %6
  %28 = load double, ptr %9, align 8
  %29 = getelementptr inbounds %"class.gmx::GridAxis", ptr %14, i32 0, i32 0
  %30 = load double, ptr %29, align 8
  %31 = fsub double %28, %30
  %32 = getelementptr inbounds %"class.gmx::GridAxis", ptr %14, i32 0, i32 1
  store double %31, ptr %32, align 8
  %33 = getelementptr inbounds %"class.gmx::GridAxis", ptr %14, i32 0, i32 3
  store double 1.000000e+00, ptr %33, align 8
  %34 = load i32, ptr %11, align 4
  %35 = getelementptr inbounds %"class.gmx::GridAxis", ptr %14, i32 0, i32 5
  store i32 %34, ptr %35, align 4
  br label %69

36:                                               ; preds = %6
  %37 = getelementptr inbounds %"class.gmx::GridAxis", ptr %14, i32 0, i32 0
  %38 = load double, ptr %37, align 8
  %39 = load double, ptr %9, align 8
  %40 = getelementptr inbounds %"class.gmx::GridAxis", ptr %14, i32 0, i32 2
  %41 = load double, ptr %40, align 8
  %42 = call noundef double @_ZN3gmx12_GLOBAL__N_125getIntervalLengthPeriodicEddd(double noundef %38, double noundef %39, double noundef %41)
  %43 = getelementptr inbounds %"class.gmx::GridAxis", ptr %14, i32 0, i32 1
  store double %42, ptr %43, align 8
  %44 = getelementptr inbounds %"class.gmx::GridAxis", ptr %14, i32 0, i32 4
  %45 = load i32, ptr %44, align 8
  %46 = icmp sgt i32 %45, 1
  br i1 %46, label %47, label %55

47:                                               ; preds = %36
  %48 = getelementptr inbounds %"class.gmx::GridAxis", ptr %14, i32 0, i32 1
  %49 = load double, ptr %48, align 8
  %50 = getelementptr inbounds %"class.gmx::GridAxis", ptr %14, i32 0, i32 4
  %51 = load i32, ptr %50, align 8
  %52 = sub nsw i32 %51, 1
  %53 = sitofp i32 %52 to double
  %54 = fdiv double %49, %53
  br label %58

55:                                               ; preds = %36
  %56 = getelementptr inbounds %"class.gmx::GridAxis", ptr %14, i32 0, i32 2
  %57 = load double, ptr %56, align 8
  br label %58

58:                                               ; preds = %55, %47
  %59 = phi double [ %54, %47 ], [ %57, %55 ]
  %60 = getelementptr inbounds %"class.gmx::GridAxis", ptr %14, i32 0, i32 3
  store double %59, ptr %60, align 8
  %61 = getelementptr inbounds %"class.gmx::GridAxis", ptr %14, i32 0, i32 2
  %62 = load double, ptr %61, align 8
  %63 = getelementptr inbounds %"class.gmx::GridAxis", ptr %14, i32 0, i32 3
  %64 = load double, ptr %63, align 8
  %65 = fdiv double %62, %64
  %66 = call double @llvm.round.f64(double %65)
  %67 = fptosi double %66 to i32
  %68 = getelementptr inbounds %"class.gmx::GridAxis", ptr %14, i32 0, i32 5
  store i32 %67, ptr %68, align 4
  br label %69

69:                                               ; preds = %58, %27
  ret void
}