; Function Attrs: mustprogress uwtable
define void @_ZN3gmx8GridAxisC2Edddib(ptr nocapture noundef nonnull writeonly align 8 dereferenceable(41) %0, double noundef %1, double noundef %2, double noundef %3, i32 noundef %4, i1 noundef zeroext %5) unnamed_addr #6 align 2 {
  %7 = zext i1 %5 to i8
  store double %1, ptr %0, align 8
  %8 = getelementptr inbounds i8, ptr %0, i64 16
  store double %3, ptr %8, align 8
  %9 = getelementptr inbounds i8, ptr %0, i64 32
  store i32 %4, ptr %9, align 8
  %10 = getelementptr inbounds i8, ptr %0, i64 40
  store i8 %7, ptr %10, align 8
  %11 = fsub double %2, %1
  br i1 %5, label %12, label %15

12:                                               ; preds = %6
  %13 = getelementptr inbounds i8, ptr %0, i64 8
  store double %11, ptr %13, align 8
  %14 = getelementptr inbounds i8, ptr %0, i64 24
  store double 1.000000e+00, ptr %14, align 8
  br label %34

15:                                               ; preds = %6
  %16 = fcmp olt double %11, 0.000000e+00
  %17 = fadd double %11, %3
  %.0.i = select i1 %16, double %17, double %11
  %18 = fcmp ult double %.0.i, 0.000000e+00
  br i1 %18, label %19, label %20

19:                                               ; preds = %15
  tail call void @_ZN3gmx8internal13assertHandlerEPKcS2_S2_S2_i(ptr noundef nonnull @.str.5, ptr noundef nonnull @.str.6, ptr noundef nonnull @"__PRETTY_FUNCTION__._ZZN3gmx12_GLOBAL__N_125getIntervalLengthPeriodicEdddENK3$_0clEv", ptr noundef nonnull @.str.2, i32 noundef 161) #22
  unreachable

20:                                               ; preds = %15
  %21 = fcmp une double %3, 0.000000e+00
  %22 = fcmp ugt double %.0.i, %3
  %or.cond.i = and i1 %21, %22
  br i1 %or.cond.i, label %23, label %_ZN3gmx12_GLOBAL__N_125getIntervalLengthPeriodicEddd.exit

23:                                               ; preds = %20
  tail call void @_ZN3gmx8internal13assertHandlerEPKcS2_S2_S2_i(ptr noundef nonnull @.str.7, ptr noundef nonnull @.str.8, ptr noundef nonnull @"__PRETTY_FUNCTION__._ZZN3gmx12_GLOBAL__N_125getIntervalLengthPeriodicEdddENK3$_0clEv", ptr noundef nonnull @.str.2, i32 noundef 162) #22
  unreachable

_ZN3gmx12_GLOBAL__N_125getIntervalLengthPeriodicEddd.exit: ; preds = %20
  %24 = getelementptr inbounds i8, ptr %0, i64 8
  store double %.0.i, ptr %24, align 8
  %25 = icmp sgt i32 %4, 1
  %26 = add nsw i32 %4, -1
  %27 = sitofp i32 %26 to double
  %28 = fdiv double %.0.i, %27
  %29 = select i1 %25, double %28, double %3
  %30 = getelementptr inbounds i8, ptr %0, i64 24
  store double %29, ptr %30, align 8
  %31 = fdiv double %3, %29
  %32 = tail call double @llvm.round.f64(double %31)
  %33 = fptosi double %32 to i32
  br label %34

34:                                               ; preds = %_ZN3gmx12_GLOBAL__N_125getIntervalLengthPeriodicEddd.exit, %12
  %.sink = phi i32 [ %33, %_ZN3gmx12_GLOBAL__N_125getIntervalLengthPeriodicEddd.exit ], [ %4, %12 ]
  %35 = getelementptr inbounds i8, ptr %0, i64 36
  store i32 %.sink, ptr %35, align 4
  ret void
}